(dp0
S'schedIROptions'
p1
S'pct,10,true,pct,60,true'
p2
sS'doHighlightFont'
p3
Vfalse
p4
sS'zoomAndScroll'
p5
(dp6
L1413040356905L
(lp7
I1
aI0
asL1413042476650L
(lp8
I1
aI0
assS'highlightColor'
p9
Vyellow
p10
s.